; Function Attrs: nounwind uwtable
define internal range(i32 -1, 38) i32 @attlist8(ptr noundef writeonly captures(none) %0, i32 noundef %1, ptr noundef %2, ptr noundef %3, ptr noundef %4) #1 {
  switch i32 %1, label %26 [
    i32 15, label %27
    i32 20, label %6
    i32 27, label %.sink.split
  ]

6:                                                ; preds = %5
  %7 = getelementptr inbounds nuw i8, ptr %4, i64 40
  %8 = load ptr, ptr %7, align 8, !tbaa !10
  %9 = getelementptr inbounds nuw i8, ptr %4, i64 120
  %10 = load i32, ptr %9, align 8, !tbaa !12
  %11 = sext i32 %10 to i64
  %12 = getelementptr inbounds i8, ptr %2, i64 %11
  %13 = tail call i32 %8(ptr noundef %4, ptr noundef %12, ptr noundef %3, ptr noundef nonnull @KW_IMPLIED) #5
  %.not = icmp eq i32 %13, 0
  br i1 %.not, label %14, label %.sink.split

14:                                               ; preds = %6
  %15 = load ptr, ptr %7, align 8, !tbaa !10
  %16 = load i32, ptr %9, align 8, !tbaa !12
  %17 = sext i32 %16 to i64
  %18 = getelementptr inbounds i8, ptr %2, i64 %17
  %19 = tail call i32 %15(ptr noundef nonnull %4, ptr noundef %18, ptr noundef %3, ptr noundef nonnull @KW_REQUIRED) #5
  %.not22 = icmp eq i32 %19, 0
  br i1 %.not22, label %20, label %.sink.split

20:                                               ; preds = %14
  %21 = load ptr, ptr %7, align 8, !tbaa !10
  %22 = load i32, ptr %9, align 8, !tbaa !12
  %23 = sext i32 %22 to i64
  %24 = getelementptr inbounds i8, ptr %2, i64 %23
  %25 = tail call i32 %21(ptr noundef nonnull %4, ptr noundef %24, ptr noundef %3, ptr noundef nonnull @KW_FIXED) #5
  %.not23 = icmp eq i32 %25, 0
  br i1 %.not23, label %26, label %.sink.split

26:                                               ; preds = %20, %5
  br label %.sink.split

.sink.split:                                      ; preds = %5, %20, %14, %6, %26
  %error.sink = phi ptr [ @error, %26 ], [ @attlist1, %6 ], [ @attlist1, %14 ], [ @attlist9, %20 ], [ @attlist1, %5 ]
  %.0.ph = phi i32 [ -1, %26 ], [ 35, %6 ], [ 36, %14 ], [ 33, %20 ], [ 37, %5 ]
  store ptr %error.sink, ptr %0, align 8, !tbaa !4
  br label %27

27:                                               ; preds = %.sink.split, %5
  %.0 = phi i32 [ 33, %5 ], [ %.0.ph, %.sink.split ]
  ret i32 %.0
}